target datalayout = "e-m:e-p270:32:32-p271:32:32-p272:64:64-i64:64-i128:128-f80:128-n8:16:32:64-S128"
target triple = "x86_64-pc-linux-gnu"

; Function Attrs: nounwind uwtable
define dso_local double @priority_p_calc_fs_factor(x86_fp80 noundef %0, x86_fp80 noundef %1) #0 {
  %3 = alloca x86_fp80, align 16
  %4 = alloca x86_fp80, align 16
  %5 = alloca double, align 8
  store x86_fp80 %0, ptr %3, align 16
  store x86_fp80 %1, ptr %4, align 16
  call void @llvm.lifetime.start.p0(i64 8, ptr %5) #5
  %6 = load x86_fp80, ptr %4, align 16
  %7 = fcmp ole x86_fp80 %6, 0xK00000000000000000000
  br i1 %7, label %16, label %8

8:                                                ; preds = %2
  %9 = load x86_fp80, ptr %4, align 16
  %10 = fsub x86_fp80 %9, 0xK401EFFFFFFFE00000000
  %11 = fcmp ogt x86_fp80 %10, 0xKBFEEA7C5AC471B478800
  br i1 %11, label %12, label %17

12:                                               ; preds = %8
  %13 = load x86_fp80, ptr %4, align 16
  %14 = fsub x86_fp80 %13, 0xK401EFFFFFFFE00000000
  %15 = fcmp olt x86_fp80 %14, 0xK3FEEA7C5AC471B478800
  br i1 %15, label %16, label %17

16:                                               ; preds = %12, %2
  store double 0.000000e+00, ptr %5, align 8
  br label %24

17:                                               ; preds = %12, %8
  %18 = load x86_fp80, ptr %3, align 16
  %19 = load x86_fp80, ptr %4, align 16
  %20 = fdiv x86_fp80 %18, %19
  %21 = fneg x86_fp80 %20
  %22 = fptrunc x86_fp80 %21 to double
  %23 = call double @pow(double noundef 2.000000e+00, double noundef %22) #5
  store double %23, ptr %5, align 8
  br label %24

24:                                               ; preds = %17, %16
  %25 = load double, ptr %5, align 8
  call void @llvm.lifetime.end.p0(i64 8, ptr %5) #5
  ret double %25
}