; Function Attrs: nounwind uwtable
define dso_local double @priority_p_calc_fs_factor(x86_fp80 noundef %0, x86_fp80 noundef %1) local_unnamed_addr #0 {
  %3 = fcmp ugt x86_fp80 %1, 0xK00000000000000000000
  br i1 %3, label %4, label %11

4:                                                ; preds = %2
  %5 = fadd x86_fp80 %1, 0xKC01EFFFFFFFE00000000
  %6 = tail call x86_fp80 @llvm.fabs.f80(x86_fp80 %5)
  %or.cond = fcmp olt x86_fp80 %6, 0xK3FEEA7C5AC471B478800
  br i1 %or.cond, label %11, label %7

7:                                                ; preds = %4
  %8 = fneg x86_fp80 %0
  %9 = fdiv x86_fp80 %8, %1
  %10 = fptrunc x86_fp80 %9 to double
  %exp2 = tail call double @exp2(double %10) #8
  br label %11

11:                                               ; preds = %2, %4, %7
  %.0 = phi double [ %exp2, %7 ], [ 0.000000e+00, %4 ], [ 0.000000e+00, %2 ]
  ret double %.0
}